; ModuleID = '2/597.c'
source_filename = "2/597.c"
target datalayout = "e-m:e-p270:32:32-p271:32:32-p272:64:64-i64:64-f80:128-n8:16:32:64-S128"
target triple = "x86_64-pc-linux-gnu"

@.str = private unnamed_addr constant [3 x i8] c"%d\00", align 1
@.str.1 = private unnamed_addr constant [6 x i8] c"%d %s\00", align 1
@.str.2 = private unnamed_addr constant [7 x i8] c"%c\0A%d\0A\00", align 1
@.str.3 = private unnamed_addr constant [4 x i8] c"%d\0A\00", align 1

; Function Attrs: noinline nounwind uwtable
define dso_local void @main() #0 {
  %1 = alloca i32, align 4
  %2 = alloca i32, align 4
  %3 = alloca i32, align 4
  %4 = alloca i32, align 4
  %5 = alloca i32, align 4
  %6 = alloca i32, align 4
  %7 = alloca i32, align 4
  %8 = alloca i32, align 4
  %9 = alloca [1000 x i32], align 16
  %10 = alloca [26 x i32], align 16
  %11 = alloca [1000 x [26 x i8]], align 16
  store i32 0, i32* %6, align 4
  %12 = bitcast [1000 x i32]* %9 to i8*
  call void @llvm.memset.p0i8.i64(i8* align 16 %12, i8 0, i64 4000, i1 false)
  %13 = bitcast [26 x i32]* %10 to i8*
  call void @llvm.memset.p0i8.i64(i8* align 16 %13, i8 0, i64 104, i1 false)
  %14 = bitcast [1000 x [26 x i8]]* %11 to i8*
  call void @llvm.memset.p0i8.i64(i8* align 16 %14, i8 0, i64 26000, i1 false)
  %15 = call i32 (i8*, ...) @__isoc99_scanf(i8* getelementptr inbounds ([3 x i8], [3 x i8]* @.str, i64 0, i64 0), i32* %4)
  store i32 0, i32* %1, align 4
  br label %16

16:                                               ; preds = %28, %0
  %17 = load i32, i32* %1, align 4
  %18 = load i32, i32* %4, align 4
  %19 = icmp slt i32 %17, %18
  br i1 %19, label %20, label %31

20:                                               ; preds = %16
  %21 = load i32, i32* %1, align 4
  %22 = sext i32 %21 to i64
  %23 = getelementptr inbounds [1000 x i32], [1000 x i32]* %9, i64 0, i64 %22
  %24 = load i32, i32* %1, align 4
  %25 = sext i32 %24 to i64
  %26 = getelementptr inbounds [1000 x [26 x i8]], [1000 x [26 x i8]]* %11, i64 0, i64 %25
  %27 = call i32 (i8*, ...) @__isoc99_scanf(i8* getelementptr inbounds ([6 x i8], [6 x i8]* @.str.1, i64 0, i64 0), i32* %23, [26 x i8]* %26)
  br label %28

28:                                               ; preds = %20
  %29 = load i32, i32* %1, align 4
  %30 = add nsw i32 %29, 1
  store i32 %30, i32* %1, align 4
  br label %16

31:                                               ; preds = %16
  store i32 0, i32* %1, align 4
  br label %32

32:                                               ; preds = %64, %31
  %33 = load i32, i32* %1, align 4
  %34 = load i32, i32* %4, align 4
  %35 = icmp slt i32 %33, %34
  br i1 %35, label %36, label %67

36:                                               ; preds = %32
  store i32 0, i32* %2, align 4
  br label %37

37:                                               ; preds = %60, %36
  %38 = load i32, i32* %2, align 4
  %39 = sext i32 %38 to i64
  %40 = load i32, i32* %1, align 4
  %41 = sext i32 %40 to i64
  %42 = getelementptr inbounds [1000 x [26 x i8]], [1000 x [26 x i8]]* %11, i64 0, i64 %41
  %43 = getelementptr inbounds [26 x i8], [26 x i8]* %42, i64 0, i64 0
  %44 = call i64 @strlen(i8* %43) #4
  %45 = icmp ult i64 %39, %44
  br i1 %45, label %46, label %63

46:                                               ; preds = %37
  %47 = load i32, i32* %1, align 4
  %48 = sext i32 %47 to i64
  %49 = getelementptr inbounds [1000 x [26 x i8]], [1000 x [26 x i8]]* %11, i64 0, i64 %48
  %50 = load i32, i32* %2, align 4
  %51 = sext i32 %50 to i64
  %52 = getelementptr inbounds [26 x i8], [26 x i8]* %49, i64 0, i64 %51
  %53 = load i8, i8* %52, align 1
  %54 = sext i8 %53 to i32
  %55 = sub nsw i32 %54, 65
  %56 = sext i32 %55 to i64
  %57 = getelementptr inbounds [26 x i32], [26 x i32]* %10, i64 0, i64 %56
  %58 = load i32, i32* %57, align 4
  %59 = add nsw i32 %58, 1
  store i32 %59, i32* %57, align 4
  br label %60

60:                                               ; preds = %46
  %61 = load i32, i32* %2, align 4
  %62 = add nsw i32 %61, 1
  store i32 %62, i32* %2, align 4
  br label %37

63:                                               ; preds = %37
  br label %64

64:                                               ; preds = %63
  %65 = load i32, i32* %1, align 4
  %66 = add nsw i32 %65, 1
  store i32 %66, i32* %1, align 4
  br label %32

67:                                               ; preds = %32
  %68 = getelementptr inbounds [26 x i32], [26 x i32]* %10, i64 0, i64 0
  %69 = load i32, i32* %68, align 16
  store i32 %69, i32* %8, align 4
  store i32 0, i32* %3, align 4
  store i32 0, i32* %1, align 4
  br label %70

70:                                               ; preds = %87, %67
  %71 = load i32, i32* %1, align 4
  %72 = icmp slt i32 %71, 26
  br i1 %72, label %73, label %90

73:                                               ; preds = %70
  %74 = load i32, i32* %1, align 4
  %75 = sext i32 %74 to i64
  %76 = getelementptr inbounds [26 x i32], [26 x i32]* %10, i64 0, i64 %75
  %77 = load i32, i32* %76, align 4
  %78 = load i32, i32* %8, align 4
  %79 = icmp sgt i32 %77, %78
  br i1 %79, label %80, label %86

80:                                               ; preds = %73
  %81 = load i32, i32* %1, align 4
  %82 = sext i32 %81 to i64
  %83 = getelementptr inbounds [26 x i32], [26 x i32]* %10, i64 0, i64 %82
  %84 = load i32, i32* %83, align 4
  store i32 %84, i32* %8, align 4
  %85 = load i32, i32* %1, align 4
  store i32 %85, i32* %3, align 4
  br label %86

86:                                               ; preds = %80, %73
  br label %87

87:                                               ; preds = %86
  %88 = load i32, i32* %1, align 4
  %89 = add nsw i32 %88, 1
  store i32 %89, i32* %1, align 4
  br label %70

90:                                               ; preds = %70
  %91 = load i32, i32* %3, align 4
  %92 = add nsw i32 %91, 65
  %93 = load i32, i32* %3, align 4
  %94 = sext i32 %93 to i64
  %95 = getelementptr inbounds [26 x i32], [26 x i32]* %10, i64 0, i64 %94
  %96 = load i32, i32* %95, align 4
  %97 = call i32 (i8*, ...) @printf(i8* getelementptr inbounds ([7 x i8], [7 x i8]* @.str.2, i64 0, i64 0), i32 %92, i32 %96)
  store i32 0, i32* %1, align 4
  br label %98

98:                                               ; preds = %135, %90
  %99 = load i32, i32* %1, align 4
  %100 = load i32, i32* %4, align 4
  %101 = icmp slt i32 %99, %100
  br i1 %101, label %102, label %138

102:                                              ; preds = %98
  store i32 0, i32* %2, align 4
  br label %103

103:                                              ; preds = %131, %102
  %104 = load i32, i32* %2, align 4
  %105 = sext i32 %104 to i64
  %106 = load i32, i32* %1, align 4
  %107 = sext i32 %106 to i64
  %108 = getelementptr inbounds [1000 x [26 x i8]], [1000 x [26 x i8]]* %11, i64 0, i64 %107
  %109 = getelementptr inbounds [26 x i8], [26 x i8]* %108, i64 0, i64 0
  %110 = call i64 @strlen(i8* %109) #4
  %111 = icmp ult i64 %105, %110
  br i1 %111, label %112, label %134

112:                                              ; preds = %103
  %113 = load i32, i32* %1, align 4
  %114 = sext i32 %113 to i64
  %115 = getelementptr inbounds [1000 x [26 x i8]], [1000 x [26 x i8]]* %11, i64 0, i64 %114
  %116 = load i32, i32* %2, align 4
  %117 = sext i32 %116 to i64
  %118 = getelementptr inbounds [26 x i8], [26 x i8]* %115, i64 0, i64 %117
  %119 = load i8, i8* %118, align 1
  %120 = sext i8 %119 to i32
  %121 = load i32, i32* %3, align 4
  %122 = add nsw i32 65, %121
  %123 = icmp eq i32 %120, %122
  br i1 %123, label %124, label %130

124:                                              ; preds = %112
  %125 = load i32, i32* %1, align 4
  %126 = sext i32 %125 to i64
  %127 = getelementptr inbounds [1000 x i32], [1000 x i32]* %9, i64 0, i64 %126
  %128 = load i32, i32* %127, align 4
  %129 = call i32 (i8*, ...) @printf(i8* getelementptr inbounds ([4 x i8], [4 x i8]* @.str.3, i64 0, i64 0), i32 %128)
  br label %130

130:                                              ; preds = %124, %112
  br label %131

131:                                              ; preds = %130
  %132 = load i32, i32* %2, align 4
  %133 = add nsw i32 %132, 1
  store i32 %133, i32* %2, align 4
  br label %103

134:                                              ; preds = %103
  br label %135

135:                                              ; preds = %134
  %136 = load i32, i32* %1, align 4
  %137 = add nsw i32 %136, 1
  store i32 %137, i32* %1, align 4
  br label %98

138:                                              ; preds = %98
  ret void
}

; Function Attrs: argmemonly nounwind willreturn
declare void @llvm.memset.p0i8.i64(i8* nocapture writeonly, i8, i64, i1 immarg) #1

declare dso_local i32 @__isoc99_scanf(i8*, ...) #2

; Function Attrs: nounwind readonly
declare dso_local i64 @strlen(i8*) #3

declare dso_local i32 @printf(i8*, ...) #2


!llvm.module.flags = !{!0}
!llvm.ident = !{!1}

!0 = !{i32 1, !"wchar_size", i32 4}
!1 = !{!"clang version 10.0.0-4ubuntu1 "}
